; Function Attrs: mustprogress nofree norecurse nosync nounwind willreturn memory(argmem: write) uwtable
define noundef nonnull align 8 dereferenceable(136) ptr @_ZN32pxrInternal_v0_24__pxrReserved__11GfTransform11SetIdentityEv(ptr noundef nonnull returned writeonly align 8 dereferenceable(136) initializes((0, 136)) %0) local_unnamed_addr #4 align 2 {
  %2 = getelementptr inbounds nuw i8, ptr %0, i64 56
  store double 1.000000e+00, ptr %2, align 8
  %3 = getelementptr inbounds nuw i8, ptr %0, i64 64
  store double 1.000000e+00, ptr %3, align 8
  %4 = getelementptr inbounds nuw i8, ptr %0, i64 72
  store double 1.000000e+00, ptr %4, align 8
  %5 = getelementptr inbounds nuw i8, ptr %0, i64 80
  store double 1.000000e+00, ptr %5, align 8
  %6 = getelementptr inbounds nuw i8, ptr %0, i64 88
  tail call void @llvm.memset.p0.i64(ptr noundef nonnull align 8 dereferenceable(24) %6, i8 0, i64 24, i1 false)
  %7 = getelementptr inbounds nuw i8, ptr %0, i64 24
  store double 1.000000e+00, ptr %7, align 8
  %8 = getelementptr inbounds nuw i8, ptr %0, i64 32
  tail call void @llvm.memset.p0.i64(ptr noundef nonnull align 8 dereferenceable(24) %8, i8 0, i64 24, i1 false)
  %9 = getelementptr inbounds nuw i8, ptr %0, i64 112
  tail call void @llvm.memset.p0.i64(ptr noundef nonnull align 8 dereferenceable(24) %0, i8 0, i64 24, i1 false)
  tail call void @llvm.memset.p0.i64(ptr noundef nonnull align 8 dereferenceable(24) %9, i8 0, i64 24, i1 false)
  ret ptr %0
}